(dp1
S'vocab_size'
p2
I4090
sS'max_window'
p3
I5
sS'data_dir'
p4
S'/Users/may/Tools/cnn-ld-tf/data/ted500'
p5
sS'min_window'
p6
I3
sS'num_kernel'
p7
I100
sS'train_dir'
p8
S'/Users/may/Tools/cnn-ld-tf/model/ted500'
p9
sS'batch_size'
p10
I100
sS'emb_size'
p11
I300
sS'sent_len'
p12
I259
sS'train_data'
p13
I00
sS'num_classes'
p14
I65
sS'l2_reg'
p15
I0
s.